; Function Attrs: mustprogress uwtable
define noundef i32 @_ZN3zmq13socket_base_t5leaveEPKc(ptr noundef nonnull align 8 dereferenceable(1825) %0, ptr noundef %1) local_unnamed_addr #0 align 2 personality ptr @__gxx_personality_v0 {
  %3 = alloca %"struct.zmq::scoped_optional_lock_t", align 8
  call void @llvm.lifetime.start.p0(i64 8, ptr nonnull %3) #36
  %4 = getelementptr inbounds nuw i8, ptr %0, i64 1760
  %5 = load i8, ptr %4, align 8, !tbaa !96, !range !97, !noundef !98
  %6 = trunc nuw i8 %5 to i1
  %7 = getelementptr inbounds nuw i8, ptr %0, i64 1480
  %8 = select i1 %6, ptr %7, ptr null
  store ptr %8, ptr %3, align 8, !tbaa !137
  br i1 %6, label %9, label %_ZN3zmq22scoped_optional_lock_tC2EPNS_7mutex_tE.exit

9:                                                ; preds = %2
  %10 = tail call i32 @pthread_mutex_lock(ptr noundef nonnull align 8 dereferenceable(44) %7) #36
  %.not.i.i = icmp eq i32 %10, 0
  br i1 %.not.i.i, label %_ZN3zmq22scoped_optional_lock_tC2EPNS_7mutex_tE.exit, label %11, !prof !116

11:                                               ; preds = %9
  %12 = tail call ptr @strerror(i32 noundef %10) #36
  %13 = load ptr, ptr @stderr, align 8, !tbaa !100
  %14 = tail call i32 (ptr, ptr, ...) @fprintf(ptr noundef %13, ptr noundef nonnull @.str.9, ptr noundef %12, ptr noundef nonnull @.str.23, i32 noundef 109) #42
  %15 = load ptr, ptr @stderr, align 8, !tbaa !100
  %16 = tail call i32 @fflush(ptr noundef %15)
  tail call void @_ZN3zmq9zmq_abortEPKc(ptr noundef %12)
  br label %_ZN3zmq22scoped_optional_lock_tC2EPNS_7mutex_tE.exit

_ZN3zmq22scoped_optional_lock_tC2EPNS_7mutex_tE.exit: ; preds = %2, %9, %11
  %17 = load ptr, ptr %0, align 8, !tbaa !103
  %18 = getelementptr inbounds nuw i8, ptr %17, i64 352
  %19 = load ptr, ptr %18, align 8
  %20 = invoke noundef i32 %19(ptr noundef nonnull align 8 dereferenceable(1825) %0, ptr noundef %1)
          to label %21 unwind label %33

21:                                               ; preds = %_ZN3zmq22scoped_optional_lock_tC2EPNS_7mutex_tE.exit
  br i1 %6, label %22, label %_ZN3zmq22scoped_optional_lock_tD2Ev.exit

22:                                               ; preds = %21
  %23 = tail call i32 @pthread_mutex_unlock(ptr noundef nonnull align 8 dereferenceable(44) %7) #36
  %.not.i.i4 = icmp eq i32 %23, 0
  br i1 %.not.i.i4, label %_ZN3zmq22scoped_optional_lock_tD2Ev.exit, label %24, !prof !116

24:                                               ; preds = %22
  %25 = tail call ptr @strerror(i32 noundef %23) #36
  %26 = load ptr, ptr @stderr, align 8, !tbaa !100
  %27 = tail call i32 (ptr, ptr, ...) @fprintf(ptr noundef %26, ptr noundef nonnull @.str.9, ptr noundef %25, ptr noundef nonnull @.str.23, i32 noundef 125) #42
  %28 = load ptr, ptr @stderr, align 8, !tbaa !100
  %29 = tail call i32 @fflush(ptr noundef %28)
  invoke void @_ZN3zmq9zmq_abortEPKc(ptr noundef %25)
          to label %_ZN3zmq22scoped_optional_lock_tD2Ev.exit unwind label %30

30:                                               ; preds = %24
  %31 = landingpad { ptr, i32 }
          catch ptr null
  %32 = extractvalue { ptr, i32 } %31, 0
  tail call void @__clang_call_terminate(ptr %32) #43
  unreachable

_ZN3zmq22scoped_optional_lock_tD2Ev.exit:         ; preds = %21, %22, %24
  call void @llvm.lifetime.end.p0(i64 8, ptr nonnull %3) #36
  ret i32 %20

33:                                               ; preds = %_ZN3zmq22scoped_optional_lock_tC2EPNS_7mutex_tE.exit
  %34 = landingpad { ptr, i32 }
          cleanup
  call void @_ZN3zmq22scoped_optional_lock_tD2Ev(ptr noundef nonnull align 8 dereferenceable(8) %3) #36
  call void @llvm.lifetime.end.p0(i64 8, ptr nonnull %3) #36
  resume { ptr, i32 } %34
}